; Function Attrs: mustprogress nounwind uwtable
define hidden void @_ZN7datalog19sparse_table_pluginD2Ev(ptr noundef nonnull align 8 dereferenceable(56) %this) unnamed_addr #8 align 2 personality ptr @__gxx_personality_v0 {
entry:
  store ptr getelementptr inbounds ({ [29 x ptr] }, ptr @_ZTVN7datalog19sparse_table_pluginE, i64 0, i32 0, i64 2), ptr %this, align 8
  invoke void @_ZN7datalog19sparse_table_plugin5resetEv(ptr noundef nonnull align 8 dereferenceable(56) %this)
          to label %invoke.cont unwind label %terminate.lpad

invoke.cont:                                      ; preds = %entry
  %m_pool = getelementptr inbounds i8, ptr %this, i64 32
  %0 = load ptr, ptr %m_pool, align 8
  %m_capacity.i.i.i.i = getelementptr inbounds i8, ptr %this, i64 40
  %1 = load i32, ptr %m_capacity.i.i.i.i, align 8
  %cmp.i.i.i.i.i = icmp eq ptr %0, null
  br i1 %cmp.i.i.i.i.i, label %_ZN3mapIN7datalog15table_signatureEP10ptr_vectorINS0_12sparse_tableEENS1_4hashENS1_2eqEED2Ev.exit, label %for.cond.preheader.i.i.i.i.i

for.cond.preheader.i.i.i.i.i:                     ; preds = %invoke.cont
  %cmp15.not.i.i.i.i.i = icmp eq i32 %1, 0
  br i1 %cmp15.not.i.i.i.i.i, label %for.end.i.i.i.i.i, label %for.body.i.i.i.i.i

for.body.i.i.i.i.i:                               ; preds = %for.cond.preheader.i.i.i.i.i, %_ZN17default_map_entryIN7datalog15table_signatureEP10ptr_vectorINS0_12sparse_tableEEED2Ev.exit.i.i.i.i.i
  %i.07.i.i.i.i.i = phi i32 [ %inc.i.i.i.i.i, %_ZN17default_map_entryIN7datalog15table_signatureEP10ptr_vectorINS0_12sparse_tableEEED2Ev.exit.i.i.i.i.i ], [ 0, %for.cond.preheader.i.i.i.i.i ]
  %curr.06.i.i.i.i.i = phi ptr [ %incdec.ptr.i.i.i.i.i, %_ZN17default_map_entryIN7datalog15table_signatureEP10ptr_vectorINS0_12sparse_tableEEED2Ev.exit.i.i.i.i.i ], [ %0, %for.cond.preheader.i.i.i.i.i ]
  %m_data.i.i.i.i.i.i.i = getelementptr inbounds i8, ptr %curr.06.i.i.i.i.i, i64 8
  %2 = load ptr, ptr %m_data.i.i.i.i.i.i.i, align 8
  %tobool.not.i.i.i.i.i.i.i.i.i.i.i.i.i = icmp eq ptr %2, null
  br i1 %tobool.not.i.i.i.i.i.i.i.i.i.i.i.i.i, label %_ZN17default_map_entryIN7datalog15table_signatureEP10ptr_vectorINS0_12sparse_tableEEED2Ev.exit.i.i.i.i.i, label %if.then.i.i.i.i.i.i.i.i.i.i.i.i.i

if.then.i.i.i.i.i.i.i.i.i.i.i.i.i:                ; preds = %for.body.i.i.i.i.i
  %add.ptr.i.i.i.i.i.i.i.i.i.i.i.i.i.i = getelementptr inbounds i8, ptr %2, i64 -8
  invoke void @_ZN6memory10deallocateEPv(ptr noundef nonnull %add.ptr.i.i.i.i.i.i.i.i.i.i.i.i.i.i)
          to label %_ZN17default_map_entryIN7datalog15table_signatureEP10ptr_vectorINS0_12sparse_tableEEED2Ev.exit.i.i.i.i.i unwind label %terminate.lpad.i.i.i.i.i.i.i.i.i.i.i.i

terminate.lpad.i.i.i.i.i.i.i.i.i.i.i.i:           ; preds = %if.then.i.i.i.i.i.i.i.i.i.i.i.i.i
  %3 = landingpad { ptr, i32 }
          catch ptr null
  %4 = extractvalue { ptr, i32 } %3, 0
  tail call void @__clang_call_terminate(ptr %4) #27
  unreachable

_ZN17default_map_entryIN7datalog15table_signatureEP10ptr_vectorINS0_12sparse_tableEEED2Ev.exit.i.i.i.i.i: ; preds = %if.then.i.i.i.i.i.i.i.i.i.i.i.i.i, %for.body.i.i.i.i.i
  %inc.i.i.i.i.i = add nuw i32 %i.07.i.i.i.i.i, 1
  %incdec.ptr.i.i.i.i.i = getelementptr inbounds i8, ptr %curr.06.i.i.i.i.i, i64 32
  %exitcond.not.i.i.i.i.i = icmp eq i32 %inc.i.i.i.i.i, %1
  br i1 %exitcond.not.i.i.i.i.i, label %for.end.i.i.i.i.i, label %for.body.i.i.i.i.i, !llvm.loop !38

for.end.i.i.i.i.i:                                ; preds = %_ZN17default_map_entryIN7datalog15table_signatureEP10ptr_vectorINS0_12sparse_tableEEED2Ev.exit.i.i.i.i.i, %for.cond.preheader.i.i.i.i.i
  invoke void @_ZN6memory10deallocateEPv(ptr noundef nonnull %0)
          to label %_ZN3mapIN7datalog15table_signatureEP10ptr_vectorINS0_12sparse_tableEENS1_4hashENS1_2eqEED2Ev.exit unwind label %terminate.lpad.i.i.i

terminate.lpad.i.i.i:                             ; preds = %for.end.i.i.i.i.i
  %5 = landingpad { ptr, i32 }
          catch ptr null
  %6 = extractvalue { ptr, i32 } %5, 0
  tail call void @__clang_call_terminate(ptr %6) #27
  unreachable

_ZN3mapIN7datalog15table_signatureEP10ptr_vectorINS0_12sparse_tableEENS1_4hashENS1_2eqEED2Ev.exit: ; preds = %invoke.cont, %for.end.i.i.i.i.i
  store ptr null, ptr %m_pool, align 8
  ret void

terminate.lpad:                                   ; preds = %entry
  %7 = landingpad { ptr, i32 }
          catch ptr null
  %8 = extractvalue { ptr, i32 } %7, 0
  tail call void @__clang_call_terminate(ptr %8) #27
  unreachable
}